(dp1
S"['H']"
p2
I0
sS"['H', 'b', 'b']"
p3
I1
sS"['b', 'b', 'W+', 's']"
p4
I1
sS"['H', 'W+', 'c', 's']"
p5
I0
sS"['W+', 'c', 'c']"
p6
I0
sS"['t']"
p7
I0
sS"['b', 'b', 'W+', 'c', 'c']"
p8
I1
sS"['W+', 's']"
p9
I0
sS"['t', 'b', 'b', 's']"
p10
I1
sS"['b', 'W+', 'c', 'c']"
p11
I1
sS"['b', 'W+', 'c']"
p12
I1
sS"['H', 'b', 'b', 's']"
p13
I1
sS"['H', 'c', 's']"
p14
I0
sS"['H', 'b', 'b', 'W+', 's']"
p15
I1
sS"['t', 's', 's']"
p16
I0
sS"['H', 's']"
p17
I0
sS"['b', 'W+']"
p18
I1
sS"['H', 'b', 'b', 'c', 's']"
p19
I1
sS"['H', 'W+', 's']"
p20
I0
sS"['t', 'b', 'W+', 'c', 'c', 's']"
p21
I1
sS"['b', 'b', 's']"
p22
I1
sS"['H', 'c']"
p23
I0
sS"['W+']"
p24
I0
sS"['b', 'W+', 's']"
p25
I1
sS"['H', 't', 'W+']"
p26
I0
sS"['H', 'b', 'b', 'c']"
p27
I1
sS"['b', 'b', 'W+']"
p28
I1
sS"['t', 'b', 'b']"
p29
I1
sS"['t', 'W+']"
p30
I0
sS"['b', 'b', 's', 's']"
p31
I1
sS"['H', 'b', 'b', 'W+']"
p32
I1
sS"['b', 'b', 'c', 'c', 's']"
p33
I1
sS"['s', 's']"
p34
I0
sS"['H', 'W+']"
p35
I0
sS"['t', 'b', 'W+', 'c', 'c']"
p36
I1
sS"['t', 'b', 'W+']"
p37
I1
sS"['H', 'W+', 'c', 'c', 's']"
p38
I0
sS"['H', 't', 'b', 'b']"
p39
I1
sS"['b', 'b', 'c', 's', 's']"
p40
I1
sS"['b', 'b', 'c', 'c']"
p41
I1
sS"['t', 'b', 'b', 'W+']"
p42
I1
sS"['b', 'W+', 'c', 's']"
p43
I1
sS"['H', 'W+', 's', 's']"
p44
I0
sS"['H', 'W+', 'c', 's', 's']"
p45
I0
sS"['H', 'b', 'b', 'W+', 'c']"
p46
I1
sS"['H', 'b', 'b', 'c', 'c']"
p47
I1
sS"['H', 'W+', 'c']"
p48
I0
sS"['H', 't', 'b', 'W+']"
p49
I1
sS"['b', 'b', 'W+', 'c', 'c', 's']"
p50
I1
sS"['H', 'b', 'b', 'W+', 's', 's']"
p51
I1
sS"['W+', 'c', 'c', 's']"
p52
I0
sS"['H', 'c', 'c']"
p53
I0
sS"['t', 'b', 'b', 'W+', 's', 's']"
p54
I1
sS"['t', 'b', 'b', 'W+', 'c']"
p55
I1
sS"['b', 'b', 'c', 'c', 's', 's']"
p56
I1
sS"['b', 'W+', 'c', 's', 's']"
p57
I1
sS"['t', 'b']"
p58
I1
sS"['H', 'b']"
p59
I1
sS"['s']"
p60
I0
sS"['H', 't', 'b', 'b', 'W+', 's']"
p61
I1
sS"['t', 'b', 'W+', 's']"
p62
I1
sS"['b', 'W+', 's', 's']"
p63
I1
sS"['H', 'b', 'b', 'c', 'c', 's']"
p64
I1
sS"['t', 'W+', 's', 's']"
p65
I0
sS"['W+', 'c']"
p66
I0
sS"['b', 'b', 'W+', 'c']"
p67
I1
sS"['t', 'b', 'b', 'W+', 's']"
p68
I1
sS"['b', 's', 's']"
p69
I1
sS"['H', 't', 'b', 'b', 'W+']"
p70
I1
sS"['H', 'b', 'b', 'c', 's', 's']"
p71
I1
sS"['H', 't', 'b', 'b', 'W+', 'c']"
p72
I1
sS"['H', 'b', 'W+']"
p73
I1
sS"['b', 'W+', 'c', 'c', 's']"
p74
I1
sS"['H', 't', 'b', 'b', 'W+', 'c', 'c']"
p75
I1
sS"['t', 'W+', 's']"
p76
I0
sS"['W+', 'c', 's']"
p77
I0
sS"['c', 's']"
p78
I0
sS"['H', 'b', 'b', 's', 's']"
p79
I1
sS"['t', 'b', 'b', 'W+', 'c', 'c']"
p80
I1
sS"['b', 'b', 'W+', 'c', 's']"
p81
I1
sS"['H', 't']"
p82
I0
sS"['W+', 's', 's']"
p83
I0
sS"['b', 'b', 'W+', 's', 's']"
p84
I1
sS"['H', 's', 's']"
p85
I0
sS"['H', 'c', 'c', 's', 's']"
p86
I0
sS"['W+', 'c', 'c', 's', 's']"
p87
I0
sS"['H', 't', 'b']"
p88
I1
sS"['b', 'b', 'W+', 'c', 's', 's']"
p89
I1
sS"['b', 'b', 'W+', 'c', 'c', 's', 's']"
p90
I1
sS"['W+', 'c', 's', 's']"
p91
I0
sS"['b']"
p92
I1
sS"['b', 'W+', 'c', 'c', 's', 's']"
p93
I1
sS"['H', 'b', 'b', 'W+', 'c', 'c']"
p94
I1
sS"['b', 'b']"
p95
I1
sS"['H', 'W+', 'c', 'c']"
p96
I0
sS"['b', 'b', 'c']"
p97
I1
s.