(dp1
S"['W+', 't']"
p2
I0
sS"['H', 'Z', 'c']"
p3
I1
sS"['W+', 'Z', 'b', 'b', 'c', 's', 's']"
p4
I0
sS"['H', 'b', 'b']"
p5
I2
sS"['H', 'Z']"
p6
I1
sS"['H', 'W+', 'c', 's']"
p7
I1
sS"['W+', 'b', 'b', 't']"
p8
I0
sS"['W+', 'Z', 'b', 'b', 'c', 'c', 's', 's']"
p9
I0
sS"['Z', 's', 's', 't']"
p10
I0
sS"['t']"
p11
I0
sS"['b', 'b', 't']"
p12
I0
sS"['W+', 's']"
p13
I0
sS"['H', 'Z', 'b', 'b', 't']"
p14
I2
sS"['H', 'Z', 'b']"
p15
I2
sS"['H', 'b', 'b', 's']"
p16
I2
sS"['H', 'Z', 'b', 'b', 's']"
p17
I2
sS"['H', 'c', 's']"
p18
I1
sS"['H', 's']"
p19
I1
sS"['H', 'b', 'b', 'c', 's']"
p20
I2
sS"['H', 'W+', 's']"
p21
I1
sS"['Z', 's']"
p22
I0
sS"['W+', 'Z', 'b', 'b', 's', 's']"
p23
I0
sS"['W+', 'Z', 'b', 'b', 'c', 'c', 's']"
p24
I0
sS"['H', 'c']"
p25
I1
sS"['W+', 'Z', 'b', 'b', 'c']"
p26
I0
sS"['H', 'W+', 'b', 'b', 'c', 't']"
p27
I2
sS"['W+']"
p28
I0
sS"['W+', 'b', 'b', 'c', 'c', 't']"
p29
I0
sS"['H']"
p30
I1
sS"['H', 'b', 'b', 'c']"
p31
I2
sS"['H', 'W+', 'Z', 'b', 'b', 'c']"
p32
I2
sS"['W+', 'b']"
p33
I0
sS"['Z', 'b', 'b']"
p34
I0
sS"['Z', 'b', 'b', 'c', 'c']"
p35
I0
sS"['H', 'W+', 'b', 'b', 's']"
p36
I2
sS"['b', 'b']"
p37
I0
sS"['Z', 'b', 'b', 's', 's']"
p38
I0
sS"['s', 's']"
p39
I0
sS"['H', 'W+']"
p40
I1
sS"['H', 'b', 't']"
p41
I2
sS"['H', 'W+', 'c', 'c', 's']"
p42
I1
sS"['Z']"
p43
I0
sS"['H', 'Z', 'b', 'b']"
p44
I2
sS"['W+', 'Z', 's']"
p45
I0
sS"['H', 'W+', 'b', 'b']"
p46
I2
sS"['W+', 'b', 's', 't']"
p47
I0
sS"['W+', 'Z', 'c', 'c']"
p48
I0
sS"['H', 'Z', 'c', 's']"
p49
I1
sS"['Z', 'b', 'b', 'c', 's', 's']"
p50
I0
sS"['W+', 'Z', 'b', 'b']"
p51
I0
sS"['W+', 'b', 'b', 's', 't']"
p52
I0
sS"['W+', 'Z', 'b', 'c']"
p53
I0
sS"['H', 'W+', 's', 's']"
p54
I1
sS"['H', 'W+', 'c', 's', 's']"
p55
I1
sS"['Z', 'b', 'b', 's', 't']"
p56
I0
sS"['H', 'W+', 'b']"
p57
I2
sS"['W+', 'Z', 'b', 'c', 'c', 't']"
p58
I0
sS"['W+', 'Z', 'b', 'c', 'c', 's']"
p59
I0
sS"['H', 'b', 'b', 'c', 'c']"
p60
I2
sS"['H', 'W+', 'b', 'b', 'c', 'c', 't']"
p61
I2
sS"['H', 'W+', 'c']"
p62
I1
sS"['Z', 'b', 's', 's']"
p63
I0
sS"['H', 'W+', 'b', 'b', 't']"
p64
I2
sS"['W+', 'Z', 's', 's', 't']"
p65
I0
sS"['H', 'Z', 'c', 'c']"
p66
I1
sS"['Z', 'b', 'b', 'c']"
p67
I0
sS"['H', 'c', 'c']"
p68
I1
sS"['W+', 'Z', 'c', 'c', 's', 's']"
p69
I0
sS"['W+', 'Z', 'b', 's']"
p70
I0
sS"['Z', 'b', 'b', 's']"
p71
I0
sS"['W+', 'b', 't']"
p72
I0
sS"['H', 'Z', 's']"
p73
I1
sS"['H', 'W+', 'b', 'b', 's', 's']"
p74
I2
sS"['b', 'b', 's', 't']"
p75
I0
sS"['H', 'W+', 'b', 'b', 's', 't']"
p76
I2
sS"['H', 'b']"
p77
I2
sS"['Z', 'b', 'b', 'c', 'c', 's']"
p78
I0
sS"['H', 'W+', 'b', 'b', 'c']"
p79
I2
sS"['s']"
p80
I0
sS"['W+', 'Z', 'b', 'c', 's', 's']"
p81
I0
sS"['W+', 'Z', 'c', 's', 's']"
p82
I0
sS"['H', 'W+', 'Z', 's', 's']"
p83
I1
sS"['H', 'W+', 'b', 'b', 'c', 'c']"
p84
I2
sS"['W+', 'Z', 'b', 's', 's']"
p85
I0
sS"['H', 'Z', 's', 's']"
p86
I1
sS"['H', 'W+', 'Z', 'b', 'b']"
p87
I2
sS"['H', 'b', 'b', 'c', 'c', 's']"
p88
I2
sS"['b', 't']"
p89
I0
sS"['W+', 'Z', 'b', 'c', 'c', 's', 't']"
p90
I0
sS"['W+', 'Z', 'b', 'c', 'c']"
p91
I0
sS"['W+', 'Z', 'c', 'c', 's']"
p92
I0
sS"['W+', 's', 's', 't']"
p93
I0
sS"['W+', 'Z', 'b']"
p94
I0
sS"['W+', 'Z', 'b', 'b', 'c', 's']"
p95
I0
sS"['W+', 'Z', 's', 's']"
p96
I0
sS"['W+', 'Z', 'b', 'c', 'c', 's', 's']"
p97
I0
sS"['W+', 'Z', 'c']"
p98
I0
sS"['W+', 'Z', 's', 't']"
p99
I0
sS"['H', 'Z', 'b', 'b', 'c', 'c']"
p100
I2
sS"['H', 'b', 'b', 'c', 's', 's']"
p101
I2
sS"['W+', 'b', 'b', 's', 's', 't']"
p102
I0
sS"['W+', 'Z', 'b', 'c', 's']"
p103
I0
sS"['W+', 'b', 'b', 'c', 't']"
p104
I0
sS"['W+', 'Z', 'c', 's']"
p105
I0
sS"['H', 'W+', 'b', 't']"
p106
I2
sS"['H', 'Z', 'b', 'b', 'c']"
p107
I2
sS"['W+', 'b', 'b', 's']"
p108
I0
sS"['W+', 'Z', 'b', 't']"
p109
I0
sS"['H', 'b', 'b', 's', 's']"
p110
I2
sS"['H', 't']"
p111
I1
sS"['H', 'W+', 'Z', 'b', 'b', 't']"
p112
I2
sS"['H', 'b', 'b', 't']"
p113
I2
sS"['H', 'Z', 'b', 'b', 's', 's']"
p114
I2
sS"['W+', 'Z', 'b', 'b', 's']"
p115
I0
sS"['H', 'W+', 't']"
p116
I1
sS"['H', 's', 's']"
p117
I1
sS"['W+', 'Z', 'b', 'b', 'c', 'c']"
p118
I0
sS"['Z', 'b', 'b', 'c', 'c', 's', 's']"
p119
I0
sS"['W+', 'Z', 'b', 'b', 's', 's', 't']"
p120
I0
sS"['H', 'W+', 'Z']"
p121
I1
sS"['W+', 'Z']"
p122
I0
sS"['H', 'c', 'c', 's', 's']"
p123
I1
sS"['Z', 'c', 's']"
p124
I0
sS"['W+', 'b', 'b']"
p125
I0
sS"['Z', 'b']"
p126
I0
sS"['b']"
p127
I0
sS"['H', 'W+', 'c', 'c']"
p128
I1
s.