(dp1
S"['W+', 't']"
p2
I0
sS"['H', 'Z', 'c']"
p3
I1
sS"['H']"
p4
I1
sS"['Z', 'b', 't']"
p5
I0
sS"['H', 'b', 'b']"
p6
I3
sS"['H', 'Z']"
p7
I1
sS"['H', 'W+', 'c', 's']"
p8
I1
sS"['W+', 'Z', 'b', 'b', 'c', 'c', 's', 's']"
p9
I0
sS"['W+', 'b', 't']"
p10
I0
sS"['t']"
p11
I0
sS"['b', 'b', 't']"
p12
I0
sS"['W+', 's']"
p13
I0
sS"['H', 'Z', 'b', 'b', 't']"
p14
I3
sS"['W+', 'Z', 'b', 'b', 's', 's']"
p15
I0
sS"['H', 'b', 'b', 's']"
p16
I3
sS"['H', 'W+', 'Z', 'b', 'b', 's']"
p17
I3
sS"['H', 'Z', 'b', 'b', 's']"
p18
I3
sS"['H', 'c', 's']"
p19
I1
sS"['H', 'W+', 'b', 'b', 'c', 's']"
p20
I3
sS"['H', 's']"
p21
I1
sS"['H', 'b', 'b', 'c', 's']"
p22
I3
sS"['H', 'W+', 's']"
p23
I1
sS"['H', 'Z', 'b']"
p24
I2
sS"['W+', 'Z', 'b', 'b', 'c', 'c', 's']"
p25
I0
sS"['H', 'c']"
p26
I1
sS"['W+', 'Z', 'b', 'b', 'c']"
p27
I0
sS"['H', 'W+', 'b', 'b', 'c', 't']"
p28
I3
sS"['W+']"
p29
I0
sS"['W+', 'b', 'b', 'c', 'c', 't']"
p30
I0
sS"['W+', 'Z', 'b', 'b', 'c', 's', 's']"
p31
I0
sS"['W+', 's', 's']"
p32
I0
sS"['H', 'b', 'b', 'c']"
p33
I3
sS"['H', 'W+', 'Z', 'b', 'b', 'c']"
p34
I3
sS"['W+', 'b']"
p35
I0
sS"['Z', 'b', 'b']"
p36
I0
sS"['b', 'b', 's', 's']"
p37
I0
sS"['H', 'W+', 'Z', 'b', 'b', 's', 's']"
p38
I3
sS"['H', 'W+', 'b', 'b', 's']"
p39
I3
sS"['b', 'b']"
p40
I0
sS"['Z', 'b', 'b', 's', 's']"
p41
I0
sS"['b', 'b', 's']"
p42
I0
sS"['H', 'W+']"
p43
I1
sS"['H', 'b', 's', 's']"
p44
I2
sS"['H', 'b', 't']"
p45
I2
sS"['H', 'W+', 'c', 'c', 's']"
p46
I1
sS"['H', 'W+', 'Z', 'b', 'b', 'c', 'c']"
p47
I3
sS"['Z']"
p48
I0
sS"['H', 'Z', 'b', 'b']"
p49
I3
sS"['W+', 'Z', 's']"
p50
I0
sS"['H', 'Z', 'b', 'b', 'c', 's', 's']"
p51
I3
sS"['H', 'W+', 'b', 'b']"
p52
I3
sS"['W+', 'Z', 'c', 'c']"
p53
I0
sS"['H', 'Z', 'c', 's']"
p54
I1
sS"['Z', 'b', 'b', 'c', 's', 's']"
p55
I0
sS"['W+', 'Z', 'b', 'b']"
p56
I0
sS"['W+', 'b', 'b', 's', 't']"
p57
I0
sS"['H', 'Z', 's']"
p58
I1
sS"['H', 'W+', 's', 's']"
p59
I1
sS"['W+', 'Z']"
p60
I0
sS"['H', 'W+', 'c', 's', 's']"
p61
I1
sS"['H', 'W+', 'b']"
p62
I2
sS"['W+', 'Z', 'b', 'c', 'c', 't']"
p63
I0
sS"['W+', 'Z', 'b', 'c', 'c', 's']"
p64
I0
sS"['H', 'b', 'b', 'c', 'c']"
p65
I3
sS"['H', 'W+', 'b', 'b', 'c', 'c', 't']"
p66
I3
sS"['H', 'W+', 'c']"
p67
I1
sS"['Z', 'b', 's', 's']"
p68
I0
sS"['H', 'W+', 'b', 'b', 't']"
p69
I3
sS"['H', 'Z', 'c', 'c']"
p70
I1
sS"['Z', 'b', 'b', 'c']"
p71
I0
sS"['H', 'c', 'c']"
p72
I1
sS"['H', 'Z', 'b', 'c', 's']"
p73
I2
sS"['H', 'Z', 'b', 's']"
p74
I2
sS"['W+', 'Z', 'c', 'c', 's', 's']"
p75
I0
sS"['H', 'Z', 'b', 't']"
p76
I2
sS"['Z', 'b', 'b', 's']"
p77
I0
sS"['H', 'W+', 'Z', 'c', 'c']"
p78
I1
sS"['W+', 'Z', 'b', 'c']"
p79
I0
sS"['H', 'W+', 'b', 'b', 's', 's']"
p80
I3
sS"['b', 'b', 's', 't']"
p81
I0
sS"['H', 'W+', 'b', 'b', 's', 't']"
p82
I3
sS"['H', 'b']"
p83
I2
sS"['Z', 'b', 'b', 'c', 'c', 's']"
p84
I0
sS"['Z', 's', 's']"
p85
I0
sS"['H', 'W+', 'b', 'b', 'c']"
p86
I3
sS"['H', 'W+', 'Z', 't']"
p87
I1
sS"['W+', 'Z', 'b', 'c', 's', 's']"
p88
I0
sS"['W+', 'Z', 'c', 's', 's']"
p89
I0
sS"['H', 'W+', 'Z', 's', 's']"
p90
I1
sS"['H', 'Z', 'b', 'c', 'c']"
p91
I2
sS"['H', 'W+', 'b', 'b', 'c', 'c']"
p92
I3
sS"['W+', 'Z', 'b', 's', 's']"
p93
I0
sS"['W+', 'b', 'c', 's', 's']"
p94
I0
sS"['H', 'W+', 'c', 'c', 's', 's']"
p95
I1
sS"['H', 'Z', 's', 's']"
p96
I1
sS"['Z', 'b', 'b', 't']"
p97
I0
sS"['H', 'W+', 'Z', 'b', 'b']"
p98
I3
sS"['H', 'Z', 'b', 'b', 'c', 's']"
p99
I3
sS"['H', 'b', 'b', 'c', 'c', 's']"
p100
I3
sS"['b', 't']"
p101
I0
sS"['H', 'c', 'c', 's']"
p102
I1
sS"['W+', 'Z', 'b', 'c', 'c', 's', 't']"
p103
I0
sS"['H', 'b', 's']"
p104
I2
sS"['H', 'Z', 'b', 'c']"
p105
I2
sS"['H', 'b', 'c', 's']"
p106
I2
sS"['W+', 'Z', 'c', 'c', 's']"
p107
I0
sS"['W+', 'Z', 'b', 's']"
p108
I0
sS"['H', 'b', 'c']"
p109
I2
sS"['W+', 'Z', 'b']"
p110
I0
sS"['W+', 'Z', 'b', 'b', 'c', 's']"
p111
I0
sS"['W+', 'Z', 's', 's']"
p112
I0
sS"['W+', 'Z', 'b', 'c', 'c', 's', 's']"
p113
I0
sS"['H', 'Z', 'b', 's', 's']"
p114
I2
sS"['Z', 'b', 'b', 'c', 'c']"
p115
I0
sS"['H', 'Z', 'b', 'b', 'c', 'c']"
p116
I3
sS"['H', 'b', 'b', 'c', 's', 's']"
p117
I3
sS"['H', 'c', 's', 's']"
p118
I1
sS"['W+', 'b', 'b', 's', 's', 't']"
p119
I0
sS"['W+', 'Z', 'b', 'c', 's']"
p120
I0
sS"['W+', 'b', 'b']"
p121
I0
sS"['W+', 'b', 'b', 'c', 't']"
p122
I0
sS"['H', 'W+', 'b', 'b', 's', 's', 't']"
p123
I3
sS"['H', 'W+', 'Z', 'b']"
p124
I2
sS"['W+', 'b', 'b', 't']"
p125
I0
sS"['W+', 'Z', 'b', 'b', 't']"
p126
I0
sS"['H', 'W+', 'b', 't']"
p127
I2
sS"['H', 'Z', 'b', 'b', 'c']"
p128
I3
sS"['W+', 'b', 'b', 's']"
p129
I0
sS"['H', 'b', 'b', 's', 's']"
p130
I3
sS"['H', 't']"
p131
I1
sS"['H', 'W+', 'Z', 'b', 'b', 't']"
p132
I3
sS"['H', 'b', 'b', 't']"
p133
I3
sS"['W+', 'b', 's', 's', 't']"
p134
I0
sS"['H', 'Z', 'b', 'b', 's', 's']"
p135
I3
sS"['W+', 'Z', 'b', 'b', 's']"
p136
I0
sS"['H', 'W+', 't']"
p137
I1
sS"['Z', 'b', 'c', 's', 's']"
p138
I0
sS"['H', 's', 's']"
p139
I1
sS"['W+', 'Z', 'b', 'b', 'c', 'c']"
p140
I0
sS"['H', 'W+', 'Z', 's']"
p141
I1
sS"['Z', 'b', 'b', 'c', 'c', 's', 's']"
p142
I0
sS"['W+', 'Z', 'b', 'b', 's', 's', 't']"
p143
I0
sS"['H', 'W+', 'Z']"
p144
I1
sS"['W+', 'Z', 'b', 's', 't']"
p145
I0
sS"['H', 'c', 'c', 's', 's']"
p146
I1
sS"['H', 'b', 'c', 'c']"
p147
I2
sS"['H', 'b', 'b', 'c', 'c', 's', 's']"
p148
I3
sS"['Z', 'b']"
p149
I0
sS"['b']"
p150
I0
sS"['H', 'W+', 'Z', 'c']"
p151
I1
sS"['Z', 'b', 'c']"
p152
I0
sS"['W+', 'Z', 'b', 'c', 'c']"
p153
I0
sS"['H', 'W+', 'c', 'c']"
p154
I1
sS"['b', 'b', 'c']"
p155
I0
s.